target datalayout = "e-m:e-p270:32:32-p271:32:32-p272:64:64-i64:64-i128:128-f80:128-n8:16:32:64-S128"
target triple = "x86_64-pc-linux-gnu"

%struct.SurfaceDataRasInfo = type { %struct.SurfaceDataBounds, ptr, i32, i32, i32, i32, ptr, ptr, ptr, ptr, ptr, ptr, i32, %union.anon.0 }
%struct.SurfaceDataBounds = type { i32, i32, i32, i32 }
%union.anon.0 = type { ptr, [56 x i8] }

; Function Attrs: nounwind uwtable
define hidden void @AnyShortSetRect(ptr noundef %0, i32 noundef %1, i32 noundef %2, i32 noundef %3, i32 noundef %4, i32 noundef %5, ptr noundef %6, ptr noundef %7) #0 {
  %9 = alloca ptr, align 8
  %10 = alloca i32, align 4
  %11 = alloca i32, align 4
  %12 = alloca i32, align 4
  %13 = alloca i32, align 4
  %14 = alloca i32, align 4
  %15 = alloca ptr, align 8
  %16 = alloca ptr, align 8
  %17 = alloca ptr, align 8
  %18 = alloca i32, align 4
  %19 = alloca i32, align 4
  %20 = alloca i32, align 4
  %21 = alloca i32, align 4
  store ptr %0, ptr %9, align 8
  store i32 %1, ptr %10, align 4
  store i32 %2, ptr %11, align 4
  store i32 %3, ptr %12, align 4
  store i32 %4, ptr %13, align 4
  store i32 %5, ptr %14, align 4
  store ptr %6, ptr %15, align 8
  store ptr %7, ptr %16, align 8
  %22 = load ptr, ptr %9, align 8
  %23 = getelementptr inbounds %struct.SurfaceDataRasInfo, ptr %22, i32 0, i32 4
  %24 = load i32, ptr %23, align 8
  store i32 %24, ptr %18, align 4
  %25 = load i32, ptr %13, align 4
  %26 = load i32, ptr %11, align 4
  %27 = sub nsw i32 %25, %26
  store i32 %27, ptr %19, align 4
  %28 = load i32, ptr %12, align 4
  %29 = load i32, ptr %10, align 4
  %30 = sub nsw i32 %28, %29
  store i32 %30, ptr %20, align 4
  %31 = load ptr, ptr %9, align 8
  %32 = getelementptr inbounds %struct.SurfaceDataRasInfo, ptr %31, i32 0, i32 1
  %33 = load ptr, ptr %32, align 8
  %34 = ptrtoint ptr %33 to i64
  %35 = load i32, ptr %11, align 4
  %36 = sext i32 %35 to i64
  %37 = load i32, ptr %18, align 4
  %38 = sext i32 %37 to i64
  %39 = mul nsw i64 %36, %38
  %40 = load i32, ptr %10, align 4
  %41 = sext i32 %40 to i64
  %42 = mul nsw i64 %41, 2
  %43 = add nsw i64 %39, %42
  %44 = add nsw i64 %34, %43
  %45 = inttoptr i64 %44 to ptr
  store ptr %45, ptr %17, align 8
  br label %46

46:                                               ; preds = %66, %8
  store i32 0, ptr %21, align 4
  br label %47

47:                                               ; preds = %54, %46
  %48 = load i32, ptr %14, align 4
  %49 = trunc i32 %48 to i16
  %50 = load ptr, ptr %17, align 8
  %51 = load i32, ptr %21, align 4
  %52 = zext i32 %51 to i64
  %53 = getelementptr inbounds i16, ptr %50, i64 %52
  store i16 %49, ptr %53, align 2
  br label %54

54:                                               ; preds = %47
  %55 = load i32, ptr %21, align 4
  %56 = add i32 %55, 1
  store i32 %56, ptr %21, align 4
  %57 = load i32, ptr %20, align 4
  %58 = icmp ult i32 %56, %57
  br i1 %58, label %47, label %59, !llvm.loop !6

59:                                               ; preds = %54
  %60 = load ptr, ptr %17, align 8
  %61 = ptrtoint ptr %60 to i64
  %62 = load i32, ptr %18, align 4
  %63 = sext i32 %62 to i64
  %64 = add nsw i64 %61, %63
  %65 = inttoptr i64 %64 to ptr
  store ptr %65, ptr %17, align 8
  br label %66

66:                                               ; preds = %59
  %67 = load i32, ptr %19, align 4
  %68 = add i32 %67, -1
  store i32 %68, ptr %19, align 4
  %69 = icmp ugt i32 %68, 0
  br i1 %69, label %46, label %70, !llvm.loop !8

70:                                               ; preds = %66
  ret void
}