; Function Attrs: nofree norecurse nosync nounwind memory(write, argmem: readwrite, inaccessiblemem: none) uwtable
define hidden void @AnyShortSetRect(ptr nocapture noundef readonly %0, i32 noundef %1, i32 noundef %2, i32 noundef %3, i32 noundef %4, i32 noundef %5, ptr nocapture readnone %6, ptr nocapture readnone %7) #0 {
  %9 = getelementptr inbounds i8, ptr %0, i64 32
  %10 = load i32, ptr %9, align 8
  %11 = sub nsw i32 %4, %2
  %12 = sub nsw i32 %3, %1
  %13 = getelementptr inbounds i8, ptr %0, i64 16
  %14 = load ptr, ptr %13, align 8
  %15 = ptrtoint ptr %14 to i64
  %16 = sext i32 %2 to i64
  %17 = sext i32 %10 to i64
  %18 = mul nsw i64 %17, %16
  %19 = sext i32 %1 to i64
  %20 = shl nsw i64 %19, 1
  %21 = add nsw i64 %18, %20
  %22 = add nsw i64 %21, %15
  %23 = trunc i32 %5 to i16
  %umax = tail call i32 @llvm.umax.i32(i32 %12, i32 1)
  %wide.trip.count = zext i32 %umax to i64
  br label %24

24:                                               ; preds = %27, %8
  %.017 = phi i32 [ %11, %8 ], [ %29, %27 ]
  %.016.in = phi i64 [ %22, %8 ], [ %28, %27 ]
  %.016 = inttoptr i64 %.016.in to ptr
  br label %25

25:                                               ; preds = %25, %24
  %indvars.iv = phi i64 [ %indvars.iv.next, %25 ], [ 0, %24 ]
  %26 = getelementptr inbounds i16, ptr %.016, i64 %indvars.iv
  store i16 %23, ptr %26, align 2
  %indvars.iv.next = add nuw nsw i64 %indvars.iv, 1
  %exitcond.not = icmp eq i64 %indvars.iv.next, %wide.trip.count
  br i1 %exitcond.not, label %27, label %25, !llvm.loop !6

27:                                               ; preds = %25
  %28 = add nsw i64 %.016.in, %17
  %29 = add i32 %.017, -1
  %.not = icmp eq i32 %29, 0
  br i1 %.not, label %30, label %24, !llvm.loop !8

30:                                               ; preds = %27
  ret void
}